; Function Attrs: mustprogress uwtable
define void @_ZN7rocksdb21EncryptedWritableFile25SetPreallocationBlockSizeEm(ptr noundef nonnull readonly align 8 captures(none) dereferenceable(64) %0, i64 noundef %1) unnamed_addr #3 align 2 {
  %3 = getelementptr inbounds nuw i8, ptr %0, i64 40
  %4 = load ptr, ptr %3, align 8, !tbaa !108
  %5 = load ptr, ptr %4, align 8, !tbaa !13
  %6 = getelementptr inbounds nuw i8, ptr %5, i64 152
  %7 = load ptr, ptr %6, align 8
  tail call void %7(ptr noundef nonnull align 8 dereferenceable(33) %4, i64 noundef %1)
  ret void
}